; Function Attrs: mustprogress nofree norecurse nosync nounwind willreturn memory(argmem: read) uwtable
define noundef i64 @_ZNK32pxrInternal_v0_24__pxrReserved__16HdExtComputation16GetDispatchCountEv(ptr noundef nonnull readonly align 8 captures(none) dereferenceable(136) %0) local_unnamed_addr #8 align 2 {
  %2 = getelementptr inbounds nuw i8, ptr %0, i64 16
  %3 = load i64, ptr %2, align 8
  %.not = icmp eq i64 %3, 0
  %4 = getelementptr inbounds nuw i8, ptr %0, i64 24
  %5 = load i64, ptr %4, align 8
  %6 = select i1 %.not, i64 %5, i64 %3
  ret i64 %6
}